; Function Attrs: mustprogress uwtable
define void @_ZN5osgeo4proj6common9DataEpochC2ERKNS1_7MeasureE(ptr noundef nonnull writeonly align 8 captures(none) dereferenceable(8) %0, ptr noundef nonnull align 8 dereferenceable(24) %1) unnamed_addr #0 align 2 personality ptr @__gxx_personality_v0 {
  tail call void @llvm.experimental.noalias.scope.decl(metadata !297)
  %3 = tail call noalias noundef nonnull dereferenceable(24) ptr @_Znwm(i64 noundef 24) #38, !noalias !297
  invoke void @_ZN5osgeo4proj6common7MeasureC1ERKS2_(ptr noundef nonnull align 8 dereferenceable(24) %3, ptr noundef nonnull align 8 dereferenceable(24) %1)
          to label %_ZSt11make_uniqueIN5osgeo4proj6common9DataEpoch7PrivateEJRKNS2_7MeasureEEENSt8__detail9_MakeUniqIT_E15__single_objectEDpOT0_.exit unwind label %4, !noalias !297

4:                                                ; preds = %2
  %5 = landingpad { ptr, i32 }
          cleanup
  tail call void @_ZdlPvm(ptr noundef nonnull %3, i64 noundef 24) #39, !noalias !297
  resume { ptr, i32 } %5

_ZSt11make_uniqueIN5osgeo4proj6common9DataEpoch7PrivateEJRKNS2_7MeasureEEENSt8__detail9_MakeUniqIT_E15__single_objectEDpOT0_.exit: ; preds = %2
  store ptr %3, ptr %0, align 8, !tbaa !295, !alias.scope !297
  ret void
}